target datalayout = "e-m:e-p270:32:32-p271:32:32-p272:64:64-i64:64-i128:128-f80:128-n8:16:32:64-S128"
target triple = "x86_64-pc-linux-gnu"

@H5_libinit_g = external global i8, align 1
@H5_libterm_g = external global i8, align 1
@.str = private unnamed_addr constant [97 x i8] c"generated/home/dtcxzyw/WorkSpace/Projects/compilers/llvm-opt-benchmark/bench/hdf5/hdf5/src/H5P.c\00", align 1
@H5E_FUNC_g = external global i64, align 8
@H5E_CANTINIT_g = external global i64, align 8
@.str.1 = private unnamed_addr constant [30 x i8] c"library initialization failed\00", align 1
@H5E_CANTSET_g = external global i64, align 8
@.str.2 = private unnamed_addr constant [22 x i8] c"can't set API context\00", align 1
@H5E_ARGS_g = external global i64, align 8
@H5E_BADTYPE_g = external global i64, align 8
@H5E_PLIST_g = external global i64, align 8
@H5E_CANTREGISTER_g = external global i64, align 8
@H5E_BADVALUE_g = external global i64, align 8
@.str.14 = private unnamed_addr constant [37 x i8] c"properties >0 size must have default\00", align 1
@__func__.H5Pinsert2 = private unnamed_addr constant [11 x i8] c"H5Pinsert2\00", align 1
@.str.18 = private unnamed_addr constant [20 x i8] c"not a property list\00", align 1
@.str.19 = private unnamed_addr constant [22 x i8] c"invalid property name\00", align 1
@.str.20 = private unnamed_addr constant [37 x i8] c"unable to register property in plist\00", align 1

; Function Attrs: nounwind uwtable
define i32 @H5Pinsert2(i64 noundef %0, ptr noundef %1, i64 noundef %2, ptr noundef %3, ptr noundef %4, ptr noundef %5, ptr noundef %6, ptr noundef %7, ptr noundef %8, ptr noundef %9) #0 {
  %11 = alloca i64, align 8
  %12 = alloca ptr, align 8
  %13 = alloca i64, align 8
  %14 = alloca ptr, align 8
  %15 = alloca ptr, align 8
  %16 = alloca ptr, align 8
  %17 = alloca ptr, align 8
  %18 = alloca ptr, align 8
  %19 = alloca ptr, align 8
  %20 = alloca ptr, align 8
  %21 = alloca ptr, align 8
  %22 = alloca i32, align 4
  %23 = alloca i8, align 1
  %24 = alloca i8, align 1
  store i64 %0, ptr %11, align 8
  store ptr %1, ptr %12, align 8
  store i64 %2, ptr %13, align 8
  store ptr %3, ptr %14, align 8
  store ptr %4, ptr %15, align 8
  store ptr %5, ptr %16, align 8
  store ptr %6, ptr %17, align 8
  store ptr %7, ptr %18, align 8
  store ptr %8, ptr %19, align 8
  store ptr %9, ptr %20, align 8
  store i8 0, ptr %23, align 1
  store i8 0, ptr %24, align 1
  %25 = load i8, ptr @H5_libinit_g, align 1
  %26 = trunc i8 %25 to i1
  br i1 %26, label %31, label %27

27:                                               ; preds = %10
  %28 = load i8, ptr @H5_libterm_g, align 1
  %29 = trunc i8 %28 to i1
  %30 = xor i1 %29, true
  br label %31

31:                                               ; preds = %27, %10
  %32 = phi i1 [ false, %10 ], [ %30, %27 ]
  %33 = xor i1 %32, true
  %34 = xor i1 %33, true
  %35 = zext i1 %34 to i32
  %36 = sext i32 %35 to i64
  %37 = icmp ne i64 %36, 0
  br i1 %37, label %38, label %62

38:                                               ; preds = %31
  %39 = call i32 @H5_init_library()
  %40 = icmp slt i32 %39, 0
  %41 = xor i1 %40, true
  %42 = xor i1 %41, true
  %43 = zext i1 %42 to i32
  %44 = sext i32 %43 to i64
  %45 = icmp ne i64 %44, 0
  br i1 %45, label %46, label %61

46:                                               ; preds = %38
  br label %47

47:                                               ; preds = %46
  br label %48

48:                                               ; preds = %47
  br label %49

49:                                               ; preds = %48
  %50 = load i64, ptr @H5E_FUNC_g, align 8
  %51 = load i64, ptr @H5E_CANTINIT_g, align 8
  %52 = call i32 (ptr, ptr, i32, i64, i64, ptr, ...) @H5E_printf_stack(ptr noundef @.str, ptr noundef @__func__.H5Pinsert2, i32 noundef 589, i64 noundef %50, i64 noundef %51, ptr noundef @.str.1)
  br label %53

53:                                               ; preds = %49
  store i8 1, ptr %24, align 1
  %54 = load i8, ptr %24, align 1
  %55 = trunc i8 %54 to i1
  %56 = zext i1 %55 to i8
  store i8 %56, ptr %24, align 1
  br label %57

57:                                               ; preds = %53
  br label %58

58:                                               ; preds = %57
  store i32 -1, ptr %22, align 4
  br label %178

59:                                               ; No predecessors!
  br label %60

60:                                               ; preds = %59
  br label %61

61:                                               ; preds = %60, %38
  br label %62

62:                                               ; preds = %61, %31
  %63 = call i32 @H5CX_push()
  %64 = icmp slt i32 %63, 0
  %65 = xor i1 %64, true
  %66 = xor i1 %65, true
  %67 = zext i1 %66 to i32
  %68 = sext i32 %67 to i64
  %69 = icmp ne i64 %68, 0
  br i1 %69, label %70, label %85

70:                                               ; preds = %62
  br label %71

71:                                               ; preds = %70
  br label %72

72:                                               ; preds = %71
  br label %73

73:                                               ; preds = %72
  %74 = load i64, ptr @H5E_FUNC_g, align 8
  %75 = load i64, ptr @H5E_CANTSET_g, align 8
  %76 = call i32 (ptr, ptr, i32, i64, i64, ptr, ...) @H5E_printf_stack(ptr noundef @.str, ptr noundef @__func__.H5Pinsert2, i32 noundef 589, i64 noundef %74, i64 noundef %75, ptr noundef @.str.2)
  br label %77

77:                                               ; preds = %73
  store i8 1, ptr %24, align 1
  %78 = load i8, ptr %24, align 1
  %79 = trunc i8 %78 to i1
  %80 = zext i1 %79 to i8
  store i8 %80, ptr %24, align 1
  br label %81

81:                                               ; preds = %77
  br label %82

82:                                               ; preds = %81
  store i32 -1, ptr %22, align 4
  br label %178

83:                                               ; No predecessors!
  br label %84

84:                                               ; preds = %83
  br label %86

85:                                               ; preds = %62
  store i8 1, ptr %23, align 1
  br label %86

86:                                               ; preds = %85, %84
  %87 = call i32 @H5E_clear_stack()
  %88 = load i64, ptr %11, align 8
  %89 = call ptr @H5I_object_verify(i64 noundef %88, i32 noundef 11)
  store ptr %89, ptr %21, align 8
  %90 = icmp eq ptr null, %89
  br i1 %90, label %91, label %106

91:                                               ; preds = %86
  br label %92

92:                                               ; preds = %91
  br label %93

93:                                               ; preds = %92
  br label %94

94:                                               ; preds = %93
  %95 = load i64, ptr @H5E_ARGS_g, align 8
  %96 = load i64, ptr @H5E_BADTYPE_g, align 8
  %97 = call i32 (ptr, ptr, i32, i64, i64, ptr, ...) @H5E_printf_stack(ptr noundef @.str, ptr noundef @__func__.H5Pinsert2, i32 noundef 593, i64 noundef %95, i64 noundef %96, ptr noundef @.str.18)
  br label %98

98:                                               ; preds = %94
  store i8 1, ptr %24, align 1
  %99 = load i8, ptr %24, align 1
  %100 = trunc i8 %99 to i1
  %101 = zext i1 %100 to i8
  store i8 %101, ptr %24, align 1
  br label %102

102:                                              ; preds = %98
  br label %103

103:                                              ; preds = %102
  store i32 -1, ptr %22, align 4
  br label %178

104:                                              ; No predecessors!
  br label %105

105:                                              ; preds = %104
  br label %106

106:                                              ; preds = %105, %86
  %107 = load ptr, ptr %12, align 8
  %108 = icmp ne ptr %107, null
  br i1 %108, label %109, label %113

109:                                              ; preds = %106
  %110 = load ptr, ptr %12, align 8
  %111 = load i8, ptr %110, align 1
  %112 = icmp ne i8 %111, 0
  br i1 %112, label %128, label %113

113:                                              ; preds = %109, %106
  br label %114

114:                                              ; preds = %113
  br label %115

115:                                              ; preds = %114
  br label %116

116:                                              ; preds = %115
  %117 = load i64, ptr @H5E_ARGS_g, align 8
  %118 = load i64, ptr @H5E_BADVALUE_g, align 8
  %119 = call i32 (ptr, ptr, i32, i64, i64, ptr, ...) @H5E_printf_stack(ptr noundef @.str, ptr noundef @__func__.H5Pinsert2, i32 noundef 595, i64 noundef %117, i64 noundef %118, ptr noundef @.str.19)
  br label %120

120:                                              ; preds = %116
  store i8 1, ptr %24, align 1
  %121 = load i8, ptr %24, align 1
  %122 = trunc i8 %121 to i1
  %123 = zext i1 %122 to i8
  store i8 %123, ptr %24, align 1
  br label %124

124:                                              ; preds = %120
  br label %125

125:                                              ; preds = %124
  store i32 -1, ptr %22, align 4
  br label %178

126:                                              ; No predecessors!
  br label %127

127:                                              ; preds = %126
  br label %128

128:                                              ; preds = %127, %109
  %129 = load i64, ptr %13, align 8
  %130 = icmp ugt i64 %129, 0
  br i1 %130, label %131, label %149

131:                                              ; preds = %128
  %132 = load ptr, ptr %14, align 8
  %133 = icmp eq ptr %132, null
  br i1 %133, label %134, label %149

134:                                              ; preds = %131
  br label %135

135:                                              ; preds = %134
  br label %136

136:                                              ; preds = %135
  br label %137

137:                                              ; preds = %136
  %138 = load i64, ptr @H5E_ARGS_g, align 8
  %139 = load i64, ptr @H5E_BADVALUE_g, align 8
  %140 = call i32 (ptr, ptr, i32, i64, i64, ptr, ...) @H5E_printf_stack(ptr noundef @.str, ptr noundef @__func__.H5Pinsert2, i32 noundef 597, i64 noundef %138, i64 noundef %139, ptr noundef @.str.14)
  br label %141

141:                                              ; preds = %137
  store i8 1, ptr %24, align 1
  %142 = load i8, ptr %24, align 1
  %143 = trunc i8 %142 to i1
  %144 = zext i1 %143 to i8
  store i8 %144, ptr %24, align 1
  br label %145

145:                                              ; preds = %141
  br label %146

146:                                              ; preds = %145
  store i32 -1, ptr %22, align 4
  br label %178

147:                                              ; No predecessors!
  br label %148

148:                                              ; preds = %147
  br label %149

149:                                              ; preds = %148, %131, %128
  %150 = load ptr, ptr %21, align 8
  %151 = load ptr, ptr %12, align 8
  %152 = load i64, ptr %13, align 8
  %153 = load ptr, ptr %14, align 8
  %154 = load ptr, ptr %15, align 8
  %155 = load ptr, ptr %16, align 8
  %156 = load ptr, ptr %17, align 8
  %157 = load ptr, ptr %18, align 8
  %158 = load ptr, ptr %19, align 8
  %159 = load ptr, ptr %20, align 8
  %160 = call i32 @H5P_insert(ptr noundef %150, ptr noundef %151, i64 noundef %152, ptr noundef %153, ptr noundef %154, ptr noundef %155, ptr noundef null, ptr noundef null, ptr noundef %156, ptr noundef %157, ptr noundef %158, ptr noundef %159)
  store i32 %160, ptr %22, align 4
  %161 = icmp slt i32 %160, 0
  br i1 %161, label %162, label %177

162:                                              ; preds = %149
  br label %163

163:                                              ; preds = %162
  br label %164

164:                                              ; preds = %163
  br label %165

165:                                              ; preds = %164
  %166 = load i64, ptr @H5E_PLIST_g, align 8
  %167 = load i64, ptr @H5E_CANTREGISTER_g, align 8
  %168 = call i32 (ptr, ptr, i32, i64, i64, ptr, ...) @H5E_printf_stack(ptr noundef @.str, ptr noundef @__func__.H5Pinsert2, i32 noundef 602, i64 noundef %166, i64 noundef %167, ptr noundef @.str.20)
  br label %169

169:                                              ; preds = %165
  store i8 1, ptr %24, align 1
  %170 = load i8, ptr %24, align 1
  %171 = trunc i8 %170 to i1
  %172 = zext i1 %171 to i8
  store i8 %172, ptr %24, align 1
  br label %173

173:                                              ; preds = %169
  br label %174

174:                                              ; preds = %173
  store i32 -1, ptr %22, align 4
  br label %178

175:                                              ; No predecessors!
  br label %176

176:                                              ; preds = %175
  br label %177

177:                                              ; preds = %176, %149
  br label %178

178:                                              ; preds = %177, %174, %146, %125, %103, %82, %58
  %179 = load i8, ptr %23, align 1
  %180 = trunc i8 %179 to i1
  %181 = xor i1 %180, true
  %182 = xor i1 %181, true
  %183 = zext i1 %182 to i32
  %184 = sext i32 %183 to i64
  %185 = icmp ne i64 %184, 0
  br i1 %185, label %186, label %188

186:                                              ; preds = %178
  %187 = call i32 @H5CX_pop(i1 noundef zeroext true)
  store i8 0, ptr %23, align 1
  br label %188

188:                                              ; preds = %186, %178
  %189 = load i8, ptr %24, align 1
  %190 = trunc i8 %189 to i1
  %191 = xor i1 %190, true
  %192 = xor i1 %191, true
  %193 = zext i1 %192 to i32
  %194 = sext i32 %193 to i64
  %195 = icmp ne i64 %194, 0
  br i1 %195, label %196, label %198

196:                                              ; preds = %188
  %197 = call i32 @H5E_dump_api_stack()
  br label %198

198:                                              ; preds = %196, %188
  %199 = load i32, ptr %22, align 4
  ret i32 %199
}