; Function Attrs: nounwind uwtable
define range(i32 -1, -2147483648) i32 @H5Pinsert2(i64 noundef %0, ptr noundef %1, i64 noundef %2, ptr noundef %3, ptr noundef %4, ptr noundef %5, ptr noundef %6, ptr noundef %7, ptr noundef %8, ptr noundef %9) local_unnamed_addr #0 {
  %11 = load i8, ptr @H5_libinit_g, align 1
  %12 = trunc i8 %11 to i1
  %13 = load i8, ptr @H5_libterm_g, align 1
  %14 = trunc i8 %13 to i1
  %15 = select i1 %12, i1 true, i1 %14
  br i1 %15, label %23, label %16

16:                                               ; preds = %10
  %17 = tail call i32 @H5_init_library() #2
  %18 = icmp slt i32 %17, 0
  br i1 %18, label %19, label %23

19:                                               ; preds = %16
  %20 = load i64, ptr @H5E_FUNC_g, align 8
  %21 = load i64, ptr @H5E_CANTINIT_g, align 8
  %22 = tail call i32 (ptr, ptr, i32, i64, i64, ptr, ...) @H5E_printf_stack(ptr noundef nonnull @.str, ptr noundef nonnull @__func__.H5Pinsert2, i32 noundef 589, i64 noundef %20, i64 noundef %21, ptr noundef nonnull @.str.1) #2
  br label %.thread38

23:                                               ; preds = %16, %10
  %24 = tail call i32 @H5CX_push() #2
  %25 = icmp slt i32 %24, 0
  br i1 %25, label %26, label %30

26:                                               ; preds = %23
  %27 = load i64, ptr @H5E_FUNC_g, align 8
  %28 = load i64, ptr @H5E_CANTSET_g, align 8
  %29 = tail call i32 (ptr, ptr, i32, i64, i64, ptr, ...) @H5E_printf_stack(ptr noundef nonnull @.str, ptr noundef nonnull @__func__.H5Pinsert2, i32 noundef 589, i64 noundef %27, i64 noundef %28, ptr noundef nonnull @.str.2) #2
  br label %.thread38

30:                                               ; preds = %23
  %31 = tail call i32 @H5E_clear_stack() #2
  %32 = tail call ptr @H5I_object_verify(i64 noundef %0, i32 noundef 11) #2
  %33 = icmp eq ptr %32, null
  br i1 %33, label %34, label %38

34:                                               ; preds = %30
  %35 = load i64, ptr @H5E_ARGS_g, align 8
  %36 = load i64, ptr @H5E_BADTYPE_g, align 8
  %37 = tail call i32 (ptr, ptr, i32, i64, i64, ptr, ...) @H5E_printf_stack(ptr noundef nonnull @.str, ptr noundef nonnull @__func__.H5Pinsert2, i32 noundef 593, i64 noundef %35, i64 noundef %36, ptr noundef nonnull @.str.18) #2
  br label %.thread44

38:                                               ; preds = %30
  %.not = icmp eq ptr %1, null
  br i1 %.not, label %41, label %39

39:                                               ; preds = %38
  %40 = load i8, ptr %1, align 1
  %.not29 = icmp eq i8 %40, 0
  br i1 %.not29, label %41, label %45

41:                                               ; preds = %38, %39
  %42 = load i64, ptr @H5E_ARGS_g, align 8
  %43 = load i64, ptr @H5E_BADVALUE_g, align 8
  %44 = tail call i32 (ptr, ptr, i32, i64, i64, ptr, ...) @H5E_printf_stack(ptr noundef nonnull @.str, ptr noundef nonnull @__func__.H5Pinsert2, i32 noundef 595, i64 noundef %42, i64 noundef %43, ptr noundef nonnull @.str.19) #2
  br label %.thread44

45:                                               ; preds = %39
  %46 = icmp ne i64 %2, 0
  %47 = icmp eq ptr %3, null
  %or.cond = and i1 %46, %47
  br i1 %or.cond, label %48, label %52

48:                                               ; preds = %45
  %49 = load i64, ptr @H5E_ARGS_g, align 8
  %50 = load i64, ptr @H5E_BADVALUE_g, align 8
  %51 = tail call i32 (ptr, ptr, i32, i64, i64, ptr, ...) @H5E_printf_stack(ptr noundef nonnull @.str, ptr noundef nonnull @__func__.H5Pinsert2, i32 noundef 597, i64 noundef %49, i64 noundef %50, ptr noundef nonnull @.str.14) #2
  br label %.thread44

52:                                               ; preds = %45
  %53 = tail call i32 @H5P_insert(ptr noundef nonnull %32, ptr noundef nonnull %1, i64 noundef %2, ptr noundef %3, ptr noundef %4, ptr noundef %5, ptr noundef null, ptr noundef null, ptr noundef %6, ptr noundef %7, ptr noundef %8, ptr noundef %9) #2
  %54 = icmp slt i32 %53, 0
  br i1 %54, label %55, label %60

55:                                               ; preds = %52
  %56 = load i64, ptr @H5E_PLIST_g, align 8
  %57 = load i64, ptr @H5E_CANTREGISTER_g, align 8
  %58 = tail call i32 (ptr, ptr, i32, i64, i64, ptr, ...) @H5E_printf_stack(ptr noundef nonnull @.str, ptr noundef nonnull @__func__.H5Pinsert2, i32 noundef 602, i64 noundef %56, i64 noundef %57, ptr noundef nonnull @.str.20) #2
  br label %.thread44

.thread44:                                        ; preds = %41, %55, %48, %34
  %59 = tail call i32 @H5CX_pop(i1 noundef zeroext true) #2
  br label %.thread38

60:                                               ; preds = %52
  %61 = tail call i32 @H5CX_pop(i1 noundef zeroext true) #2
  br label %63

.thread38:                                        ; preds = %26, %19, %.thread44
  %62 = tail call i32 @H5E_dump_api_stack() #2
  br label %63

63:                                               ; preds = %60, %.thread38
  %.0253341 = phi i32 [ -1, %.thread38 ], [ %53, %60 ]
  ret i32 %.0253341
}